target datalayout = "e-m:e-p270:32:32-p271:32:32-p272:64:64-i64:64-i128:128-f80:128-n8:16:32:64-S128"
target triple = "x86_64-pc-linux-gnu"

@xptable = internal global ptr null, align 8

; Function Attrs: nounwind uwtable
define hidden i32 @X509_PURPOSE_get_count() #0 {
  %1 = alloca i32, align 4
  %2 = load ptr, ptr @xptable, align 8, !tbaa !74
  %3 = icmp ne ptr %2, null
  br i1 %3, label %5, label %4

4:                                                ; preds = %0
  store i32 9, ptr %1, align 4
  br label %10

5:                                                ; preds = %0
  %6 = load ptr, ptr @xptable, align 8, !tbaa !74
  %7 = call i64 @sk_num(ptr noundef %6)
  %8 = add i64 %7, 9
  %9 = trunc i64 %8 to i32
  store i32 %9, ptr %1, align 4
  br label %10

10:                                               ; preds = %5, %4
  %11 = load i32, ptr %1, align 4
  ret i32 %11
}