; Function Attrs: nounwind uwtable
define hidden i32 @X509_PURPOSE_get_count() local_unnamed_addr #0 {
  %1 = load ptr, ptr @xptable, align 8, !tbaa !27
  %.not = icmp eq ptr %1, null
  br i1 %.not, label %6, label %2

2:                                                ; preds = %0
  %3 = tail call i64 @sk_num(ptr noundef nonnull %1) #10
  %4 = trunc i64 %3 to i32
  %5 = add i32 %4, 9
  br label %6

6:                                                ; preds = %0, %2
  %.0 = phi i32 [ %5, %2 ], [ 9, %0 ]
  ret i32 %.0
}